target datalayout = "e-m:e-p270:32:32-p271:32:32-p272:64:64-i64:64-i128:128-f80:128-n8:16:32:64-S128"
target triple = "x86_64-pc-linux-gnu"

%"class.FreeListAllocator::PendingList" = type { ptr, ptr, i64 }
%class.FreeListAllocator = type { ptr, [120 x i8], i64, [120 x i8], %class.LockFreeStack, [120 x i8], i8, [127 x i8], i32, [2 x %"class.FreeListAllocator::PendingList"] }
%class.LockFreeStack = type { ptr }

@_ZN17FreeListAllocator11PendingListC1Ev = hidden unnamed_addr alias void (ptr), ptr @_ZN17FreeListAllocator11PendingListC2Ev

; Function Attrs: mustprogress nounwind uwtable
define linkonce_odr hidden void @_ZN13LockFreeStackIN17FreeListAllocator8FreeNodeEXadL_ZNS0_8next_ptrERS1_EEEC2Ev(ptr noundef nonnull align 8 dereferenceable(8) %0) unnamed_addr #1 comdat align 2 {
  %2 = alloca ptr, align 8
  store ptr %0, ptr %2, align 8
  %3 = load ptr, ptr %2, align 8
  %4 = getelementptr inbounds %class.LockFreeStack, ptr %3, i32 0, i32 0
  store volatile ptr null, ptr %4, align 8
  ret void
}

; Function Attrs: mustprogress nounwind uwtable
define hidden void @_ZN17FreeListAllocatorC2EPKcP14FreeListConfig(ptr noundef nonnull align 8 dereferenceable(568) %0, ptr noundef %1, ptr noundef %2) unnamed_addr #1 align 2 {
  %4 = alloca ptr, align 8
  %5 = alloca ptr, align 8
  %6 = alloca ptr, align 8
  store ptr %0, ptr %4, align 8
  store ptr %1, ptr %5, align 8
  store ptr %2, ptr %6, align 8
  %7 = load ptr, ptr %4, align 8
  %8 = getelementptr inbounds %class.FreeListAllocator, ptr %7, i32 0, i32 0
  %9 = load ptr, ptr %6, align 8
  store ptr %9, ptr %8, align 8
  %10 = getelementptr inbounds %class.FreeListAllocator, ptr %7, i32 0, i32 2
  store volatile i64 0, ptr %10, align 8
  %11 = getelementptr inbounds %class.FreeListAllocator, ptr %7, i32 0, i32 4
  call void @_ZN13LockFreeStackIN17FreeListAllocator8FreeNodeEXadL_ZNS0_8next_ptrERS1_EEEC2Ev(ptr noundef nonnull align 8 dereferenceable(8) %11)
  %12 = getelementptr inbounds %class.FreeListAllocator, ptr %7, i32 0, i32 6
  store volatile i8 0, ptr %12, align 8
  %13 = getelementptr inbounds %class.FreeListAllocator, ptr %7, i32 0, i32 8
  store volatile i32 0, ptr %13, align 8
  %14 = getelementptr inbounds %class.FreeListAllocator, ptr %7, i32 0, i32 9
  %15 = getelementptr inbounds [2 x %"class.FreeListAllocator::PendingList"], ptr %14, i32 0, i32 0
  %16 = getelementptr inbounds %"class.FreeListAllocator::PendingList", ptr %15, i64 2
  br label %17

17:                                               ; preds = %17, %3
  %18 = phi ptr [ %15, %3 ], [ %19, %17 ]
  call void @_ZN17FreeListAllocator11PendingListC1Ev(ptr noundef nonnull align 8 dereferenceable(24) %18)
  %19 = getelementptr inbounds %"class.FreeListAllocator::PendingList", ptr %18, i64 1
  %20 = icmp eq ptr %19, %16
  br i1 %20, label %21, label %17

21:                                               ; preds = %17
  %22 = getelementptr inbounds %class.FreeListAllocator, ptr %7, i32 0, i32 1
  %23 = getelementptr inbounds [120 x i8], ptr %22, i64 0, i64 0
  %24 = load ptr, ptr %5, align 8
  %25 = call ptr @strncpy(ptr noundef %23, ptr noundef %24, i64 noundef 119) #6
  %26 = getelementptr inbounds %class.FreeListAllocator, ptr %7, i32 0, i32 1
  %27 = getelementptr inbounds [120 x i8], ptr %26, i64 0, i64 119
  store i8 0, ptr %27, align 1
  ret void
}