; Function Attrs: mustprogress nofree nounwind memory(argmem: readwrite, inaccessiblemem: readwrite) uwtable
define hidden void @_ZN17FreeListAllocatorC2EPKcP14FreeListConfig(ptr noundef nonnull align 8 dereferenceable(568) %0, ptr nocapture noundef readonly %1, ptr noundef %2) unnamed_addr #4 align 2 {
  store ptr %2, ptr %0, align 8
  %4 = getelementptr inbounds i8, ptr %0, i64 128
  store volatile i64 0, ptr %4, align 8
  %5 = getelementptr inbounds i8, ptr %0, i64 256
  store volatile ptr null, ptr %5, align 8
  %6 = getelementptr inbounds i8, ptr %0, i64 384
  store volatile i8 0, ptr %6, align 8
  %7 = getelementptr inbounds i8, ptr %0, i64 512
  store volatile i32 0, ptr %7, align 8
  br label %8

8:                                                ; preds = %8, %3
  %.idx = phi i64 [ 520, %3 ], [ %.add, %8 ]
  %.ptr = getelementptr inbounds i8, ptr %0, i64 %.idx
  store ptr null, ptr %.ptr, align 8
  %9 = getelementptr inbounds i8, ptr %.ptr, i64 8
  store volatile ptr null, ptr %9, align 8
  %10 = getelementptr inbounds i8, ptr %.ptr, i64 16
  store volatile i64 0, ptr %10, align 8
  %.add = add nuw nsw i64 %.idx, 24
  %11 = icmp eq i64 %.add, 568
  br i1 %11, label %12, label %8

12:                                               ; preds = %8
  %13 = getelementptr inbounds i8, ptr %0, i64 8
  %14 = tail call ptr @strncpy(ptr noundef nonnull dereferenceable(1) %13, ptr noundef nonnull dereferenceable(1) %1, i64 noundef 119) #12
  %15 = getelementptr inbounds i8, ptr %0, i64 127
  store i8 0, ptr %15, align 1
  ret void
}